target datalayout = "e-m:e-p270:32:32-p271:32:32-p272:64:64-i64:64-i128:128-f80:128-n8:16:32:64-S128"
target triple = "x86_64-pc-linux-gnu"

%struct.expert_field = type { i32, i32 }
%struct.nstime_t = type { i64, i32 }
%struct._packet_info = type { ptr, ptr, i32, i32, %struct.nstime_t, %struct.nstime_t, %struct.nstime_t, i8, ptr, ptr, ptr, ptr, %struct._address, %struct._address, %struct._address, %struct._address, %struct._address, %struct._address, i32, ptr, i8, [3 x i8], %struct.anon, i32, i32, i32, i32, ptr, i8, ptr, ptr, i16, i16, i32, i32, i16, i32, i32, ptr, ptr, ptr, i8, i8, i16, i16, i16, i32, i16, i16, ptr, ptr, ptr, ptr, ptr, i32, i32 }
%struct._address = type { i32, i32, ptr, ptr }
%struct.anon = type { i8, [3 x i8] }

@ei_seq_arp_storm = internal global %struct.expert_field zeroinitializer, align 4
@proto_arp = internal global i32 0, align 4
@global_arp_detect_request_storm_packets = internal global i32 30, align 4
@global_arp_detect_request_storm_period = internal global i32 100, align 4
@arp_request_count = internal global i32 0, align 4
@time_at_start_of_count = internal global %struct.nstime_t zeroinitializer, align 8
@.str.298 = private unnamed_addr constant [50 x i8] c"ARP packet storm detected (%u packets in < %u ms)\00", align 1

; Function Attrs: null_pointer_is_valid sspstrong uwtable
define internal void @check_for_storm_count(ptr noundef %0, ptr noundef %1, ptr noundef %2) #0 {
  %4 = alloca ptr, align 8
  %5 = alloca ptr, align 8
  %6 = alloca ptr, align 8
  %7 = alloca i8, align 1
  %8 = alloca i32, align 4
  %9 = alloca i32, align 4
  %10 = alloca i32, align 4
  %11 = alloca i32, align 4
  store ptr %0, ptr %4, align 8
  store ptr %1, ptr %5, align 8
  store ptr %2, ptr %6, align 8
  call void @llvm.lifetime.start.p0(i64 1, ptr %7) #11
  store i8 0, ptr %7, align 1
  %12 = call ptr @wmem_file_scope()
  %13 = load ptr, ptr %5, align 8
  %14 = load i32, ptr @proto_arp, align 4
  %15 = call ptr @p_get_proto_data(ptr noundef %12, ptr noundef %13, i32 noundef %14, i32 noundef 0)
  %16 = icmp ne ptr %15, null
  br i1 %16, label %17, label %24

17:                                               ; preds = %3
  %18 = call ptr @wmem_file_scope()
  %19 = load ptr, ptr %5, align 8
  %20 = load i32, ptr @proto_arp, align 4
  %21 = call ptr @p_get_proto_data(ptr noundef %18, ptr noundef %19, i32 noundef %20, i32 noundef 0)
  %22 = icmp eq ptr %21, inttoptr (i64 1 to ptr)
  %23 = zext i1 %22 to i8
  store i8 %23, ptr %7, align 1
  br label %74

24:                                               ; preds = %3
  call void @llvm.lifetime.start.p0(i64 4, ptr %8) #11
  %25 = load ptr, ptr %5, align 8
  %26 = getelementptr inbounds nuw %struct._packet_info, ptr %25, i32 0, i32 4
  %27 = getelementptr inbounds nuw %struct.nstime_t, ptr %26, i32 0, i32 0
  %28 = load i64, ptr %27, align 8
  %29 = load i64, ptr @time_at_start_of_count, align 8
  %30 = sub i64 %28, %29
  %31 = trunc i64 %30 to i32
  store i32 %31, ptr %8, align 4
  call void @llvm.lifetime.start.p0(i64 4, ptr %9) #11
  %32 = load ptr, ptr %5, align 8
  %33 = getelementptr inbounds nuw %struct._packet_info, ptr %32, i32 0, i32 4
  %34 = getelementptr inbounds nuw %struct.nstime_t, ptr %33, i32 0, i32 1
  %35 = load i32, ptr %34, align 8
  %36 = load i32, ptr getelementptr inbounds nuw (%struct.nstime_t, ptr @time_at_start_of_count, i32 0, i32 1), align 8
  %37 = sub i32 %35, %36
  store i32 %37, ptr %9, align 4
  call void @llvm.lifetime.start.p0(i64 4, ptr %10) #11
  %38 = load i32, ptr %8, align 4
  %39 = mul i32 %38, 1000
  %40 = load i32, ptr %9, align 4
  %41 = sdiv i32 %40, 1000000
  %42 = add i32 %39, %41
  store i32 %42, ptr %10, align 4
  %43 = load i32, ptr %10, align 4
  %44 = load i32, ptr @global_arp_detect_request_storm_period, align 4
  %45 = icmp sgt i32 %43, %44
  br i1 %45, label %49, label %46

46:                                               ; preds = %24
  %47 = load i32, ptr %10, align 4
  %48 = icmp slt i32 %47, 0
  br i1 %48, label %49, label %55

49:                                               ; preds = %46, %24
  store i32 1, ptr @arp_request_count, align 4
  %50 = load ptr, ptr %5, align 8
  %51 = getelementptr inbounds nuw %struct._packet_info, ptr %50, i32 0, i32 4
  call void @llvm.memcpy.p0.p0.i64(ptr align 8 @time_at_start_of_count, ptr align 8 %51, i64 16, i1 false)
  %52 = call ptr @wmem_file_scope()
  %53 = load ptr, ptr %5, align 8
  %54 = load i32, ptr @proto_arp, align 4
  call void @p_add_proto_data(ptr noundef %52, ptr noundef %53, i32 noundef %54, i32 noundef 0, ptr noundef inttoptr (i64 2 to ptr))
  store i32 1, ptr %11, align 4
  br label %71

55:                                               ; preds = %46
  %56 = load i32, ptr @arp_request_count, align 4
  %57 = load i32, ptr @global_arp_detect_request_storm_packets, align 4
  %58 = icmp ugt i32 %56, %57
  br i1 %58, label %59, label %65

59:                                               ; preds = %55
  store i8 1, ptr %7, align 1
  %60 = call ptr @wmem_file_scope()
  %61 = load ptr, ptr %5, align 8
  %62 = load i32, ptr @proto_arp, align 4
  call void @p_add_proto_data(ptr noundef %60, ptr noundef %61, i32 noundef %62, i32 noundef 0, ptr noundef inttoptr (i64 1 to ptr))
  %63 = load ptr, ptr %5, align 8
  %64 = getelementptr inbounds nuw %struct._packet_info, ptr %63, i32 0, i32 4
  call void @llvm.memcpy.p0.p0.i64(ptr align 8 @time_at_start_of_count, ptr align 8 %64, i64 16, i1 false)
  br label %69

65:                                               ; preds = %55
  %66 = call ptr @wmem_file_scope()
  %67 = load ptr, ptr %5, align 8
  %68 = load i32, ptr @proto_arp, align 4
  call void @p_add_proto_data(ptr noundef %66, ptr noundef %67, i32 noundef %68, i32 noundef 0, ptr noundef inttoptr (i64 2 to ptr))
  br label %69

69:                                               ; preds = %65, %59
  br label %70

70:                                               ; preds = %69
  store i32 0, ptr %11, align 4
  br label %71

71:                                               ; preds = %70, %49
  call void @llvm.lifetime.end.p0(i64 4, ptr %10) #11
  call void @llvm.lifetime.end.p0(i64 4, ptr %9) #11
  call void @llvm.lifetime.end.p0(i64 4, ptr %8) #11
  %72 = load i32, ptr %11, align 4
  switch i32 %72, label %85 [
    i32 0, label %73
  ]

73:                                               ; preds = %71
  br label %74

74:                                               ; preds = %73, %17
  %75 = load i8, ptr %7, align 1, !range !6, !noundef !7
  %76 = trunc i8 %75 to i1
  br i1 %76, label %77, label %84

77:                                               ; preds = %74
  %78 = load ptr, ptr %6, align 8
  %79 = load ptr, ptr %5, align 8
  %80 = load ptr, ptr %4, align 8
  %81 = load i32, ptr @global_arp_detect_request_storm_packets, align 4
  %82 = load i32, ptr @global_arp_detect_request_storm_period, align 4
  %83 = call ptr (ptr, ptr, ptr, ptr, i32, i32, ptr, ...) @proto_tree_add_expert_format(ptr noundef %78, ptr noundef %79, ptr noundef @ei_seq_arp_storm, ptr noundef %80, i32 noundef 0, i32 noundef 0, ptr noundef @.str.298, i32 noundef %81, i32 noundef %82)
  store i32 0, ptr @arp_request_count, align 4
  br label %84

84:                                               ; preds = %77, %74
  store i32 0, ptr %11, align 4
  br label %85

85:                                               ; preds = %84, %71
  call void @llvm.lifetime.end.p0(i64 1, ptr %7) #11
  %86 = load i32, ptr %11, align 4
  switch i32 %86, label %88 [
    i32 0, label %87
    i32 1, label %87
  ]

87:                                               ; preds = %85, %85
  ret void

88:                                               ; preds = %85
  unreachable
}