; Function Attrs: null_pointer_is_valid sspstrong uwtable
define internal fastcc void @check_for_storm_count(ptr noundef %0, ptr noundef %1, ptr noundef %2) unnamed_addr #0 {
  %4 = tail call ptr @wmem_file_scope()
  %5 = load i32, ptr @proto_arp, align 4
  %6 = tail call ptr @p_get_proto_data(ptr noundef %4, ptr noundef %1, i32 noundef %5, i32 noundef 0)
  %.not = icmp eq ptr %6, null
  br i1 %.not, label %12, label %7

7:                                                ; preds = %3
  %8 = tail call ptr @wmem_file_scope()
  %9 = load i32, ptr @proto_arp, align 4
  %10 = tail call ptr @p_get_proto_data(ptr noundef %8, ptr noundef %1, i32 noundef %9, i32 noundef 0)
  %11 = icmp eq ptr %10, inttoptr (i64 1 to ptr)
  br i1 %11, label %38, label %42

12:                                               ; preds = %3
  %13 = getelementptr inbounds nuw i8, ptr %1, i64 24
  %14 = load i64, ptr %13, align 8
  %15 = load i64, ptr @time_at_start_of_count, align 8
  %16 = sub i64 %14, %15
  %17 = trunc i64 %16 to i32
  %18 = getelementptr inbounds nuw i8, ptr %1, i64 32
  %19 = load i32, ptr %18, align 8
  %20 = load i32, ptr getelementptr inbounds nuw (i8, ptr @time_at_start_of_count, i64 8), align 8
  %21 = sub i32 %19, %20
  %22 = mul i32 %17, 1000
  %23 = sdiv i32 %21, 1000000
  %24 = add i32 %23, %22
  %25 = load i32, ptr @global_arp_detect_request_storm_period, align 4
  %26 = icmp sle i32 %24, %25
  %27 = icmp sgt i32 %24, -1
  %or.cond.not = and i1 %26, %27
  br i1 %or.cond.not, label %28, label %34

28:                                               ; preds = %12
  %29 = load i32, ptr @arp_request_count, align 4
  %30 = load i32, ptr @global_arp_detect_request_storm_packets, align 4
  %31 = icmp ugt i32 %29, %30
  %32 = tail call ptr @wmem_file_scope()
  %33 = load i32, ptr @proto_arp, align 4
  br i1 %31, label %.thread22, label %37

.thread22:                                        ; preds = %28
  tail call void @p_add_proto_data(ptr noundef %32, ptr noundef %1, i32 noundef %33, i32 noundef 0, ptr noundef nonnull inttoptr (i64 1 to ptr))
  tail call void @llvm.memcpy.p0.p0.i64(ptr noundef nonnull align 8 dereferenceable(16) @time_at_start_of_count, ptr noundef nonnull align 8 dereferenceable(16) %13, i64 16, i1 false)
  br label %38

34:                                               ; preds = %12
  store i32 1, ptr @arp_request_count, align 4
  tail call void @llvm.memcpy.p0.p0.i64(ptr noundef nonnull align 8 dereferenceable(16) @time_at_start_of_count, ptr noundef nonnull align 8 dereferenceable(16) %13, i64 16, i1 false)
  %35 = tail call ptr @wmem_file_scope()
  %36 = load i32, ptr @proto_arp, align 4
  tail call void @p_add_proto_data(ptr noundef %35, ptr noundef %1, i32 noundef %36, i32 noundef 0, ptr noundef nonnull inttoptr (i64 2 to ptr))
  br label %42

37:                                               ; preds = %28
  tail call void @p_add_proto_data(ptr noundef %32, ptr noundef %1, i32 noundef %33, i32 noundef 0, ptr noundef nonnull inttoptr (i64 2 to ptr))
  br label %42

38:                                               ; preds = %.thread22, %7
  %39 = load i32, ptr @global_arp_detect_request_storm_packets, align 4
  %40 = load i32, ptr @global_arp_detect_request_storm_period, align 4
  %41 = tail call ptr (ptr, ptr, ptr, ptr, i32, i32, ptr, ...) @proto_tree_add_expert_format(ptr noundef %2, ptr noundef %1, ptr noundef nonnull @ei_seq_arp_storm, ptr noundef %0, i32 noundef 0, i32 noundef 0, ptr noundef nonnull @.str.298, i32 noundef %39, i32 noundef %40)
  store i32 0, ptr @arp_request_count, align 4
  br label %42

42:                                               ; preds = %37, %7, %34, %38
  ret void
}